; Function Attrs: nounwind uwtable
define dso_local noundef i32 @select_p_node_init() local_unnamed_addr #0 {
  %1 = tail call i32 @pthread_mutex_lock(ptr noundef nonnull @cr_mutex) #11
  %.not = icmp eq i32 %1, 0
  br i1 %.not, label %4, label %2

2:                                                ; preds = %0
  %3 = tail call ptr @__errno_location() #12
  store i32 %1, ptr %3, align 4
  tail call void (ptr, ...) @slurm_fatal_abort(ptr noundef nonnull @.str.1, ptr noundef nonnull @__func__.select_p_node_init) #13
  unreachable

4:                                                ; preds = %0
  %5 = load ptr, ptr @cr_ptr, align 8
  tail call fastcc void @_free_cr(ptr noundef %5)
  store ptr null, ptr @cr_ptr, align 8
  %6 = load ptr, ptr @node_record_table_ptr, align 8
  %7 = load i32, ptr @node_record_count, align 4
  tail call void @cr_init_global_core_data(ptr noundef %6, i32 noundef %7) #11
  %8 = tail call i32 @pthread_mutex_unlock(ptr noundef nonnull @cr_mutex) #11
  %.not5 = icmp eq i32 %8, 0
  br i1 %.not5, label %11, label %9

9:                                                ; preds = %4
  %10 = tail call ptr @__errno_location() #12
  store i32 %8, ptr %10, align 4
  tail call void (ptr, ...) @slurm_fatal_abort(ptr noundef nonnull @.str.2, ptr noundef nonnull @__func__.select_p_node_init) #13
  unreachable

11:                                               ; preds = %4
  ret i32 0
}